target datalayout = "e-m:e-p270:32:32-p271:32:32-p272:64:64-i64:64-i128:128-f80:128-n8:16:32:64-S128"
target triple = "x86_64-pc-linux-gnu"

%struct.evhttp_connection = type { %struct.anon, ptr, %struct.event, ptr, i16, ptr, i16, ptr, i64, i64, i32, %struct.timeval, %struct.timeval, %struct.timeval, i32, i32, %struct.timeval, i32, ptr, %struct.evcon_requestq, ptr, ptr, ptr, ptr, %struct.event_callback, ptr, ptr, i32, ptr }
%struct.anon = type { ptr, ptr }
%struct.event = type { %struct.event_callback, %union.anon.1, i32, i16, i16, ptr, %union.anon.3, %struct.timeval }
%union.anon.1 = type { %struct.anon.2 }
%struct.anon.2 = type { ptr, ptr }
%union.anon.3 = type { %struct.anon.4 }
%struct.anon.4 = type { %struct.anon.5, %struct.timeval }
%struct.anon.5 = type { ptr, ptr }
%struct.timeval = type { i64, i64 }
%struct.evcon_requestq = type { ptr, ptr }
%struct.event_callback = type { %struct.anon.0, i16, i8, i8, %union.anon, ptr }
%struct.anon.0 = type { ptr, ptr }
%union.anon = type { ptr }

@.str.59 = private unnamed_addr constant [18 x i8] c"%s: calloc failed\00", align 1
@__func__.evhttp_connection_new_ = private unnamed_addr constant [23 x i8] c"evhttp_connection_new_\00", align 1
@.str.60 = private unnamed_addr constant [34 x i8] c"%s: bufferevent_socket_new failed\00", align 1

; Function Attrs: nounwind uwtable
define internal ptr @evhttp_connection_new_(ptr noundef %0, ptr noundef %1) #0 {
  %3 = alloca ptr, align 8
  %4 = alloca ptr, align 8
  %5 = alloca ptr, align 8
  %6 = alloca ptr, align 8
  %7 = alloca i32, align 4
  store ptr %0, ptr %4, align 8
  store ptr %1, ptr %5, align 8
  call void @llvm.lifetime.start.p0(i64 8, ptr %6) #11
  %8 = call ptr @event_mm_calloc_(i64 noundef 1, i64 noundef 416)
  store ptr %8, ptr %6, align 8
  %9 = icmp eq ptr %8, null
  br i1 %9, label %10, label %11

10:                                               ; preds = %2
  call void (ptr, ...) @event_warn(ptr noundef @.str.59, ptr noundef @__func__.evhttp_connection_new_)
  br label %87

11:                                               ; preds = %2
  %12 = load ptr, ptr %6, align 8
  %13 = getelementptr inbounds nuw %struct.evhttp_connection, ptr %12, i32 0, i32 8
  store i64 -1, ptr %13, align 8
  %14 = load ptr, ptr %6, align 8
  %15 = getelementptr inbounds nuw %struct.evhttp_connection, ptr %14, i32 0, i32 9
  store i64 -1, ptr %15, align 8
  %16 = load ptr, ptr %6, align 8
  %17 = getelementptr inbounds nuw %struct.evhttp_connection, ptr %16, i32 0, i32 11
  %18 = getelementptr inbounds nuw %struct.timeval, ptr %17, i32 0, i32 0
  store i64 45, ptr %18, align 8
  %19 = load ptr, ptr %6, align 8
  %20 = getelementptr inbounds nuw %struct.evhttp_connection, ptr %19, i32 0, i32 12
  %21 = getelementptr inbounds nuw %struct.timeval, ptr %20, i32 0, i32 0
  store i64 50, ptr %21, align 8
  %22 = load ptr, ptr %6, align 8
  %23 = getelementptr inbounds nuw %struct.evhttp_connection, ptr %22, i32 0, i32 13
  %24 = getelementptr inbounds nuw %struct.timeval, ptr %23, i32 0, i32 0
  store i64 50, ptr %24, align 8
  %25 = load ptr, ptr %6, align 8
  %26 = getelementptr inbounds nuw %struct.evhttp_connection, ptr %25, i32 0, i32 16
  %27 = getelementptr inbounds nuw %struct.timeval, ptr %26, i32 0, i32 0
  store i64 2, ptr %27, align 8
  %28 = load ptr, ptr %6, align 8
  %29 = getelementptr inbounds nuw %struct.evhttp_connection, ptr %28, i32 0, i32 15
  store i32 0, ptr %29, align 4
  %30 = load ptr, ptr %6, align 8
  %31 = getelementptr inbounds nuw %struct.evhttp_connection, ptr %30, i32 0, i32 14
  store i32 0, ptr %31, align 8
  %32 = load ptr, ptr %5, align 8
  %33 = icmp eq ptr %32, null
  br i1 %33, label %34, label %40

34:                                               ; preds = %11
  %35 = load ptr, ptr %4, align 8
  %36 = call ptr @bufferevent_socket_new(ptr noundef %35, i32 noundef -1, i32 noundef 1)
  store ptr %36, ptr %5, align 8
  %37 = icmp ne ptr %36, null
  br i1 %37, label %39, label %38

38:                                               ; preds = %34
  call void (ptr, ...) @event_warn(ptr noundef @.str.60, ptr noundef @__func__.evhttp_connection_new_)
  br label %87

39:                                               ; preds = %34
  br label %40

40:                                               ; preds = %39, %11
  %41 = load ptr, ptr %5, align 8
  %42 = load ptr, ptr %6, align 8
  call void @bufferevent_setcb(ptr noundef %41, ptr noundef @evhttp_read_cb, ptr noundef @evhttp_write_cb, ptr noundef @evhttp_error_cb, ptr noundef %42)
  %43 = load ptr, ptr %5, align 8
  %44 = load ptr, ptr %6, align 8
  %45 = getelementptr inbounds nuw %struct.evhttp_connection, ptr %44, i32 0, i32 1
  store ptr %43, ptr %45, align 8
  %46 = load ptr, ptr %6, align 8
  %47 = getelementptr inbounds nuw %struct.evhttp_connection, ptr %46, i32 0, i32 17
  store i32 0, ptr %47, align 8
  br label %48

48:                                               ; preds = %40
  %49 = load ptr, ptr %6, align 8
  %50 = getelementptr inbounds nuw %struct.evhttp_connection, ptr %49, i32 0, i32 19
  %51 = getelementptr inbounds nuw %struct.evcon_requestq, ptr %50, i32 0, i32 0
  store ptr null, ptr %51, align 8
  %52 = load ptr, ptr %6, align 8
  %53 = getelementptr inbounds nuw %struct.evhttp_connection, ptr %52, i32 0, i32 19
  %54 = getelementptr inbounds nuw %struct.evcon_requestq, ptr %53, i32 0, i32 0
  %55 = load ptr, ptr %6, align 8
  %56 = getelementptr inbounds nuw %struct.evhttp_connection, ptr %55, i32 0, i32 19
  %57 = getelementptr inbounds nuw %struct.evcon_requestq, ptr %56, i32 0, i32 1
  store ptr %54, ptr %57, align 8
  br label %58

58:                                               ; preds = %48
  br label %59

59:                                               ; preds = %58
  %60 = load ptr, ptr %4, align 8
  %61 = icmp ne ptr %60, null
  br i1 %61, label %62, label %77

62:                                               ; preds = %59
  %63 = load ptr, ptr %4, align 8
  %64 = load ptr, ptr %6, align 8
  %65 = getelementptr inbounds nuw %struct.evhttp_connection, ptr %64, i32 0, i32 25
  store ptr %63, ptr %65, align 8
  %66 = load ptr, ptr %5, align 8
  %67 = call ptr @bufferevent_get_base(ptr noundef %66)
  %68 = load ptr, ptr %4, align 8
  %69 = icmp ne ptr %67, %68
  br i1 %69, label %70, label %76

70:                                               ; preds = %62
  %71 = load ptr, ptr %4, align 8
  %72 = load ptr, ptr %6, align 8
  %73 = getelementptr inbounds nuw %struct.evhttp_connection, ptr %72, i32 0, i32 1
  %74 = load ptr, ptr %73, align 8
  %75 = call i32 @bufferevent_base_set(ptr noundef %71, ptr noundef %74)
  br label %76

76:                                               ; preds = %70, %62
  br label %77

77:                                               ; preds = %76, %59
  %78 = load ptr, ptr %6, align 8
  %79 = getelementptr inbounds nuw %struct.evhttp_connection, ptr %78, i32 0, i32 24
  %80 = load ptr, ptr %5, align 8
  %81 = call i32 @bufferevent_get_priority(ptr noundef %80)
  %82 = trunc i32 %81 to i8
  %83 = load ptr, ptr %6, align 8
  call void @event_deferred_cb_init_(ptr noundef %79, i8 noundef zeroext %82, ptr noundef @evhttp_deferred_read_cb, ptr noundef %83)
  %84 = load ptr, ptr %6, align 8
  %85 = getelementptr inbounds nuw %struct.evhttp_connection, ptr %84, i32 0, i32 27
  store i32 0, ptr %85, align 8
  %86 = load ptr, ptr %6, align 8
  store ptr %86, ptr %3, align 8
  store i32 1, ptr %7, align 4
  br label %93

87:                                               ; preds = %38, %10
  %88 = load ptr, ptr %6, align 8
  %89 = icmp ne ptr %88, null
  br i1 %89, label %90, label %92

90:                                               ; preds = %87
  %91 = load ptr, ptr %6, align 8
  call void @evhttp_connection_free(ptr noundef %91)
  br label %92

92:                                               ; preds = %90, %87
  store ptr null, ptr %3, align 8
  store i32 1, ptr %7, align 4
  br label %93

93:                                               ; preds = %92, %77
  call void @llvm.lifetime.end.p0(i64 8, ptr %6) #11
  %94 = load ptr, ptr %3, align 8
  ret ptr %94
}