; Function Attrs: nounwind uwtable
define internal fastcc ptr @evhttp_connection_new_(ptr noundef %0, ptr noundef %1) unnamed_addr #0 {
  %3 = tail call ptr @event_mm_calloc_(i64 noundef 1, i64 noundef 416) #18
  %4 = icmp eq ptr %3, null
  br i1 %4, label %.thread, label %5

.thread:                                          ; preds = %2
  tail call void (ptr, ...) @event_warn(ptr noundef nonnull @.str.59, ptr noundef nonnull @__func__.evhttp_connection_new_) #18
  br label %33

5:                                                ; preds = %2
  %6 = getelementptr inbounds nuw i8, ptr %3, i64 184
  %7 = getelementptr inbounds nuw i8, ptr %3, i64 208
  tail call void @llvm.memset.p0.i64(ptr noundef nonnull align 8 dereferenceable(16) %6, i8 -1, i64 16, i1 false)
  store i64 45, ptr %7, align 8
  %8 = getelementptr inbounds nuw i8, ptr %3, i64 224
  store i64 50, ptr %8, align 8
  %9 = getelementptr inbounds nuw i8, ptr %3, i64 240
  store i64 50, ptr %9, align 8
  %10 = getelementptr inbounds nuw i8, ptr %3, i64 264
  store i64 2, ptr %10, align 8
  %11 = getelementptr inbounds nuw i8, ptr %3, i64 260
  store i32 0, ptr %11, align 4
  %12 = getelementptr inbounds nuw i8, ptr %3, i64 256
  store i32 0, ptr %12, align 8
  %13 = icmp eq ptr %1, null
  br i1 %13, label %14, label %16

14:                                               ; preds = %5
  %15 = tail call ptr @bufferevent_socket_new(ptr noundef %0, i32 noundef -1, i32 noundef 1) #18
  %.not = icmp eq ptr %15, null
  br i1 %.not, label %32, label %16

16:                                               ; preds = %14, %5
  %.033 = phi ptr [ %15, %14 ], [ %1, %5 ]
  tail call void @bufferevent_setcb(ptr noundef nonnull %.033, ptr noundef nonnull @evhttp_read_cb, ptr noundef nonnull @evhttp_write_cb, ptr noundef nonnull @evhttp_error_cb, ptr noundef nonnull %3) #18
  %17 = getelementptr inbounds nuw i8, ptr %3, i64 16
  store ptr %.033, ptr %17, align 8
  %18 = getelementptr inbounds nuw i8, ptr %3, i64 280
  store i32 0, ptr %18, align 8
  %19 = getelementptr inbounds nuw i8, ptr %3, i64 296
  store ptr null, ptr %19, align 8
  %20 = getelementptr inbounds nuw i8, ptr %3, i64 304
  store ptr %19, ptr %20, align 8
  %.not38 = icmp eq ptr %0, null
  br i1 %.not38, label %27, label %21

21:                                               ; preds = %16
  %22 = getelementptr inbounds nuw i8, ptr %3, i64 384
  store ptr %0, ptr %22, align 8
  %23 = tail call ptr @bufferevent_get_base(ptr noundef nonnull %.033) #18
  %.not39 = icmp eq ptr %23, %0
  br i1 %.not39, label %27, label %24

24:                                               ; preds = %21
  %25 = load ptr, ptr %17, align 8
  %26 = tail call i32 @bufferevent_base_set(ptr noundef nonnull %0, ptr noundef %25) #18
  br label %27

27:                                               ; preds = %21, %24, %16
  %28 = getelementptr inbounds nuw i8, ptr %3, i64 344
  %29 = tail call i32 @bufferevent_get_priority(ptr noundef nonnull %.033) #18
  %30 = trunc i32 %29 to i8
  tail call void @event_deferred_cb_init_(ptr noundef nonnull %28, i8 noundef zeroext %30, ptr noundef nonnull @evhttp_deferred_read_cb, ptr noundef nonnull %3) #18
  %31 = getelementptr inbounds nuw i8, ptr %3, i64 400
  store i32 0, ptr %31, align 8
  br label %33

32:                                               ; preds = %14
  tail call void (ptr, ...) @event_warn(ptr noundef nonnull @.str.60, ptr noundef nonnull @__func__.evhttp_connection_new_) #18
  tail call void @evhttp_connection_free(ptr noundef nonnull %3)
  br label %33

33:                                               ; preds = %.thread, %32, %27
  %.0 = phi ptr [ %3, %27 ], [ null, %32 ], [ null, %.thread ]
  ret ptr %.0
}